target datalayout = "e-m:e-p270:32:32-p271:32:32-p272:64:64-i64:64-i128:128-f80:128-n8:16:32:64-S128"
target triple = "x86_64-pc-linux-gnu"

%struct.ImGuiInputTextCallbackData = type { ptr, i32, i32, ptr, i16, i32, ptr, i32, i32, i8, i32, i32, i32 }

@.str.1165 = private unnamed_addr constant [3 x i8] c"..\00", align 1
@.str.1166 = private unnamed_addr constant [12 x i8] c"Pressed Up!\00", align 1
@.str.1167 = private unnamed_addr constant [14 x i8] c"Pressed Down!\00", align 1

; Function Attrs: mustprogress nounwind uwtable
define linkonce_odr void @_ZN26ImGuiInputTextCallbackData9SelectAllEv(ptr noundef nonnull align 8 dereferenceable(64) %0) #3 comdat align 2 {
  %2 = alloca ptr, align 8
  store ptr %0, ptr %2, align 8, !tbaa !444
  %3 = load ptr, ptr %2, align 8
  %4 = getelementptr inbounds nuw %struct.ImGuiInputTextCallbackData, ptr %3, i32 0, i32 11
  store i32 0, ptr %4, align 8, !tbaa !520
  %5 = getelementptr inbounds nuw %struct.ImGuiInputTextCallbackData, ptr %3, i32 0, i32 7
  %6 = load i32, ptr %5, align 8, !tbaa !451
  %7 = getelementptr inbounds nuw %struct.ImGuiInputTextCallbackData, ptr %3, i32 0, i32 12
  store i32 %6, ptr %7, align 4, !tbaa !521
  ret void
}

; Function Attrs: mustprogress uwtable
define internal noundef i32 @_ZZL21ShowDemoWindowWidgetsP19ImGuiDemoWindowDataEN5Funcs10MyCallbackEP26ImGuiInputTextCallbackData(ptr noundef %0) #0 align 2 {
  %2 = alloca ptr, align 8
  %3 = alloca i8, align 1
  %4 = alloca ptr, align 8
  store ptr %0, ptr %2, align 8, !tbaa !444
  %5 = load ptr, ptr %2, align 8, !tbaa !444
  %6 = getelementptr inbounds nuw %struct.ImGuiInputTextCallbackData, ptr %5, i32 0, i32 1
  %7 = load i32, ptr %6, align 8, !tbaa !448
  %8 = icmp eq i32 %7, 262144
  br i1 %8, label %9, label %14

9:                                                ; preds = %1
  %10 = load ptr, ptr %2, align 8, !tbaa !444
  %11 = load ptr, ptr %2, align 8, !tbaa !444
  %12 = getelementptr inbounds nuw %struct.ImGuiInputTextCallbackData, ptr %11, i32 0, i32 10
  %13 = load i32, ptr %12, align 4, !tbaa !449
  call void @_ZN26ImGuiInputTextCallbackData11InsertCharsEiPKcS1_(ptr noundef nonnull align 8 dereferenceable(64) %10, i32 noundef %13, ptr noundef @.str.1165, ptr noundef null)
  br label %92

14:                                               ; preds = %1
  %15 = load ptr, ptr %2, align 8, !tbaa !444
  %16 = getelementptr inbounds nuw %struct.ImGuiInputTextCallbackData, ptr %15, i32 0, i32 1
  %17 = load i32, ptr %16, align 8, !tbaa !448
  %18 = icmp eq i32 %17, 524288
  br i1 %18, label %19, label %45

19:                                               ; preds = %14
  %20 = load ptr, ptr %2, align 8, !tbaa !444
  %21 = getelementptr inbounds nuw %struct.ImGuiInputTextCallbackData, ptr %20, i32 0, i32 5
  %22 = load i32, ptr %21, align 4, !tbaa !450
  %23 = icmp eq i32 %22, 515
  br i1 %23, label %24, label %31

24:                                               ; preds = %19
  %25 = load ptr, ptr %2, align 8, !tbaa !444
  %26 = load ptr, ptr %2, align 8, !tbaa !444
  %27 = getelementptr inbounds nuw %struct.ImGuiInputTextCallbackData, ptr %26, i32 0, i32 7
  %28 = load i32, ptr %27, align 8, !tbaa !451
  call void @_ZN26ImGuiInputTextCallbackData11DeleteCharsEii(ptr noundef nonnull align 8 dereferenceable(64) %25, i32 noundef 0, i32 noundef %28)
  %29 = load ptr, ptr %2, align 8, !tbaa !444
  call void @_ZN26ImGuiInputTextCallbackData11InsertCharsEiPKcS1_(ptr noundef nonnull align 8 dereferenceable(64) %29, i32 noundef 0, ptr noundef @.str.1166, ptr noundef null)
  %30 = load ptr, ptr %2, align 8, !tbaa !444
  call void @_ZN26ImGuiInputTextCallbackData9SelectAllEv(ptr noundef nonnull align 8 dereferenceable(64) %30)
  br label %44

31:                                               ; preds = %19
  %32 = load ptr, ptr %2, align 8, !tbaa !444
  %33 = getelementptr inbounds nuw %struct.ImGuiInputTextCallbackData, ptr %32, i32 0, i32 5
  %34 = load i32, ptr %33, align 4, !tbaa !450
  %35 = icmp eq i32 %34, 516
  br i1 %35, label %36, label %43

36:                                               ; preds = %31
  %37 = load ptr, ptr %2, align 8, !tbaa !444
  %38 = load ptr, ptr %2, align 8, !tbaa !444
  %39 = getelementptr inbounds nuw %struct.ImGuiInputTextCallbackData, ptr %38, i32 0, i32 7
  %40 = load i32, ptr %39, align 8, !tbaa !451
  call void @_ZN26ImGuiInputTextCallbackData11DeleteCharsEii(ptr noundef nonnull align 8 dereferenceable(64) %37, i32 noundef 0, i32 noundef %40)
  %41 = load ptr, ptr %2, align 8, !tbaa !444
  call void @_ZN26ImGuiInputTextCallbackData11InsertCharsEiPKcS1_(ptr noundef nonnull align 8 dereferenceable(64) %41, i32 noundef 0, ptr noundef @.str.1167, ptr noundef null)
  %42 = load ptr, ptr %2, align 8, !tbaa !444
  call void @_ZN26ImGuiInputTextCallbackData9SelectAllEv(ptr noundef nonnull align 8 dereferenceable(64) %42)
  br label %43

43:                                               ; preds = %36, %31
  br label %44

44:                                               ; preds = %43, %24
  br label %91

45:                                               ; preds = %14
  %46 = load ptr, ptr %2, align 8, !tbaa !444
  %47 = getelementptr inbounds nuw %struct.ImGuiInputTextCallbackData, ptr %46, i32 0, i32 1
  %48 = load i32, ptr %47, align 8, !tbaa !448
  %49 = icmp eq i32 %48, 8388608
  br i1 %49, label %50, label %90

50:                                               ; preds = %45
  call void @llvm.lifetime.start.p0(i64 1, ptr %3) #2
  %51 = load ptr, ptr %2, align 8, !tbaa !444
  %52 = getelementptr inbounds nuw %struct.ImGuiInputTextCallbackData, ptr %51, i32 0, i32 6
  %53 = load ptr, ptr %52, align 8, !tbaa !452
  %54 = getelementptr inbounds i8, ptr %53, i64 0
  %55 = load i8, ptr %54, align 1, !tbaa !120
  store i8 %55, ptr %3, align 1, !tbaa !120
  %56 = load i8, ptr %3, align 1, !tbaa !120
  %57 = sext i8 %56 to i32
  %58 = icmp sge i32 %57, 97
  br i1 %58, label %59, label %63

59:                                               ; preds = %50
  %60 = load i8, ptr %3, align 1, !tbaa !120
  %61 = sext i8 %60 to i32
  %62 = icmp sle i32 %61, 122
  br i1 %62, label %71, label %63

63:                                               ; preds = %59, %50
  %64 = load i8, ptr %3, align 1, !tbaa !120
  %65 = sext i8 %64 to i32
  %66 = icmp sge i32 %65, 65
  br i1 %66, label %67, label %80

67:                                               ; preds = %63
  %68 = load i8, ptr %3, align 1, !tbaa !120
  %69 = sext i8 %68 to i32
  %70 = icmp sle i32 %69, 90
  br i1 %70, label %71, label %80

71:                                               ; preds = %67, %59
  %72 = load ptr, ptr %2, align 8, !tbaa !444
  %73 = getelementptr inbounds nuw %struct.ImGuiInputTextCallbackData, ptr %72, i32 0, i32 6
  %74 = load ptr, ptr %73, align 8, !tbaa !452
  %75 = getelementptr inbounds i8, ptr %74, i64 0
  %76 = load i8, ptr %75, align 1, !tbaa !120
  %77 = sext i8 %76 to i32
  %78 = xor i32 %77, 32
  %79 = trunc i32 %78 to i8
  store i8 %79, ptr %75, align 1, !tbaa !120
  br label %80

80:                                               ; preds = %71, %67, %63
  %81 = load ptr, ptr %2, align 8, !tbaa !444
  %82 = getelementptr inbounds nuw %struct.ImGuiInputTextCallbackData, ptr %81, i32 0, i32 9
  store i8 1, ptr %82, align 8, !tbaa !453
  call void @llvm.lifetime.start.p0(i64 8, ptr %4) #2
  %83 = load ptr, ptr %2, align 8, !tbaa !444
  %84 = getelementptr inbounds nuw %struct.ImGuiInputTextCallbackData, ptr %83, i32 0, i32 3
  %85 = load ptr, ptr %84, align 8, !tbaa !454
  store ptr %85, ptr %4, align 8, !tbaa !170
  %86 = load ptr, ptr %4, align 8, !tbaa !170
  %87 = load i32, ptr %86, align 4, !tbaa !33
  %88 = add nsw i32 %87, 1
  %89 = load ptr, ptr %4, align 8, !tbaa !170
  store i32 %88, ptr %89, align 4, !tbaa !33
  call void @llvm.lifetime.end.p0(i64 8, ptr %4) #2
  call void @llvm.lifetime.end.p0(i64 1, ptr %3) #2
  br label %90

90:                                               ; preds = %80, %45
  br label %91

91:                                               ; preds = %90, %44
  br label %92

92:                                               ; preds = %91, %9
  ret i32 0
}