; Function Attrs: mustprogress uwtable
define internal noundef i32 @_ZZL21ShowDemoWindowWidgetsP19ImGuiDemoWindowDataEN5Funcs10MyCallbackEP26ImGuiInputTextCallbackData(ptr noundef %0) #4 align 2 {
  %2 = getelementptr inbounds nuw i8, ptr %0, i64 8
  %3 = load i32, ptr %2, align 8, !tbaa !455
  switch i32 %3, label %36 [
    i32 262144, label %4
    i32 524288, label %7
    i32 8388608, label %22
  ]

4:                                                ; preds = %1
  %5 = getelementptr inbounds nuw i8, ptr %0, i64 52
  %6 = load i32, ptr %5, align 4, !tbaa !456
  tail call void @_ZN26ImGuiInputTextCallbackData11InsertCharsEiPKcS1_(ptr noundef nonnull align 8 dereferenceable(64) %0, i32 noundef %6, ptr noundef nonnull @.str.1165, ptr noundef null)
  br label %36

7:                                                ; preds = %1
  %8 = getelementptr inbounds nuw i8, ptr %0, i64 28
  %9 = load i32, ptr %8, align 4, !tbaa !457
  switch i32 %9, label %36 [
    i32 515, label %10
    i32 516, label %16
  ]

10:                                               ; preds = %7
  %11 = getelementptr inbounds nuw i8, ptr %0, i64 40
  %12 = load i32, ptr %11, align 8, !tbaa !458
  tail call void @_ZN26ImGuiInputTextCallbackData11DeleteCharsEii(ptr noundef nonnull align 8 dereferenceable(64) %0, i32 noundef 0, i32 noundef %12)
  tail call void @_ZN26ImGuiInputTextCallbackData11InsertCharsEiPKcS1_(ptr noundef nonnull align 8 dereferenceable(64) %0, i32 noundef 0, ptr noundef nonnull @.str.1166, ptr noundef null)
  %13 = getelementptr inbounds nuw i8, ptr %0, i64 56
  store i32 0, ptr %13, align 8, !tbaa !459
  %14 = load i32, ptr %11, align 8, !tbaa !458
  %15 = getelementptr inbounds nuw i8, ptr %0, i64 60
  store i32 %14, ptr %15, align 4, !tbaa !460
  br label %36

16:                                               ; preds = %7
  %17 = getelementptr inbounds nuw i8, ptr %0, i64 40
  %18 = load i32, ptr %17, align 8, !tbaa !458
  tail call void @_ZN26ImGuiInputTextCallbackData11DeleteCharsEii(ptr noundef nonnull align 8 dereferenceable(64) %0, i32 noundef 0, i32 noundef %18)
  tail call void @_ZN26ImGuiInputTextCallbackData11InsertCharsEiPKcS1_(ptr noundef nonnull align 8 dereferenceable(64) %0, i32 noundef 0, ptr noundef nonnull @.str.1167, ptr noundef null)
  %19 = getelementptr inbounds nuw i8, ptr %0, i64 56
  store i32 0, ptr %19, align 8, !tbaa !459
  %20 = load i32, ptr %17, align 8, !tbaa !458
  %21 = getelementptr inbounds nuw i8, ptr %0, i64 60
  store i32 %20, ptr %21, align 4, !tbaa !460
  br label %36

22:                                               ; preds = %1
  %23 = getelementptr inbounds nuw i8, ptr %0, i64 32
  %24 = load ptr, ptr %23, align 8, !tbaa !461
  %25 = load i8, ptr %24, align 1, !tbaa !140
  %26 = and i8 %25, -33
  %27 = add i8 %26, -65
  %or.cond30 = icmp ult i8 %27, 26
  br i1 %or.cond30, label %28, label %30

28:                                               ; preds = %22
  %29 = xor i8 %25, 32
  store i8 %29, ptr %24, align 1, !tbaa !140
  br label %30

30:                                               ; preds = %22, %28
  %31 = getelementptr inbounds nuw i8, ptr %0, i64 48
  store i8 1, ptr %31, align 8, !tbaa !462
  %32 = getelementptr inbounds nuw i8, ptr %0, i64 16
  %33 = load ptr, ptr %32, align 8, !tbaa !463
  %34 = load i32, ptr %33, align 4, !tbaa !54
  %35 = add nsw i32 %34, 1
  store i32 %35, ptr %33, align 4, !tbaa !54
  br label %36

36:                                               ; preds = %1, %7, %16, %10, %30, %4
  ret i32 0
}